; Function Attrs: mustprogress uwtable
define hidden noundef i32 @_ZNK4cvc58internal12TheoryEngine20theoryExpPropagationENS0_6theory8TheoryIdE(ptr noundef nonnull align 8 dereferenceable(1448) %this, i32 noundef %tid) local_unnamed_addr #3 align 2 {
entry:
  %call = tail call noundef nonnull align 8 dereferenceable(392) ptr @_ZNK4cvc58internal6EnvObj7optionsEv(ptr noundef nonnull align 8 dereferenceable(16) %this)
  %theory = getelementptr inbounds i8, ptr %call, i64 368
  %0 = load ptr, ptr %theory, align 8
  %eeMode = getelementptr inbounds i8, ptr %0, i64 4
  %1 = load i32, ptr %eeMode, align 4
  %cmp = icmp eq i32 %1, 1
  br i1 %cmp, label %if.then, label %if.end6

if.then:                                          ; preds = %entry
  %call2 = tail call noundef nonnull align 8 dereferenceable(392) ptr @_ZNK4cvc58internal6EnvObj7optionsEv(ptr noundef nonnull align 8 dereferenceable(16) %this)
  %call3 = tail call noundef zeroext i1 @_ZN4cvc58internal6theory22EqEngineManagerCentral25usesCentralEqualityEngineERKNS0_7OptionsENS1_8TheoryIdE(ptr noundef nonnull align 8 dereferenceable(392) %call2, i32 noundef %tid)
  br i1 %call3, label %land.lhs.true, label %if.end6

land.lhs.true:                                    ; preds = %if.then
  %call4 = tail call noundef zeroext i1 @_ZN4cvc58internal6theory6Theory29expUsingCentralEqualityEngineENS1_8TheoryIdE(i32 noundef %tid)
  br i1 %call4, label %return, label %if.end6

if.end6:                                          ; preds = %if.then, %land.lhs.true, %entry
  br label %return

return:                                           ; preds = %land.lhs.true, %if.end6
  %retval.0 = phi i32 [ %tid, %if.end6 ], [ 0, %land.lhs.true ]
  ret i32 %retval.0
}